target datalayout = "e-m:e-p270:32:32-p271:32:32-p272:64:64-i64:64-i128:128-f80:128-n8:16:32:64-S128"
target triple = "x86_64-pc-linux-gnu"

%struct.Float4X4 = type { %union.anon }
%union.anon = type { %struct.anon }
%struct.anon = type { float, float, float, float, float, float, float, float, float, float, float, float, float, float, float, float }

; Function Attrs: nounwind uwtable
define hidden void @MatrixRotationZ(ptr dead_on_unwind noalias writable sret(%struct.Float4X4) align 4 %0, float noundef %1) #0 {
  %3 = alloca float, align 4
  %4 = alloca float, align 4
  %5 = alloca float, align 4
  store float %1, ptr %3, align 4
  call void @llvm.lifetime.start.p0(i64 4, ptr %4) #5
  %6 = load float, ptr %3, align 4
  %7 = call float @SDL_sinf_REAL(float noundef %6)
  store float %7, ptr %4, align 4
  call void @llvm.lifetime.start.p0(i64 4, ptr %5) #5
  %8 = load float, ptr %3, align 4
  %9 = call float @SDL_cosf_REAL(float noundef %8)
  store float %9, ptr %5, align 4
  call void @llvm.memset.p0.i64(ptr align 4 %0, i8 0, i64 64, i1 false)
  %10 = load float, ptr %5, align 4
  %11 = getelementptr inbounds nuw %struct.Float4X4, ptr %0, i32 0, i32 0
  %12 = getelementptr inbounds nuw %struct.anon, ptr %11, i32 0, i32 0
  store float %10, ptr %12, align 4
  %13 = load float, ptr %4, align 4
  %14 = getelementptr inbounds nuw %struct.Float4X4, ptr %0, i32 0, i32 0
  %15 = getelementptr inbounds nuw %struct.anon, ptr %14, i32 0, i32 1
  store float %13, ptr %15, align 4
  %16 = load float, ptr %4, align 4
  %17 = fneg float %16
  %18 = getelementptr inbounds nuw %struct.Float4X4, ptr %0, i32 0, i32 0
  %19 = getelementptr inbounds nuw %struct.anon, ptr %18, i32 0, i32 4
  store float %17, ptr %19, align 4
  %20 = load float, ptr %5, align 4
  %21 = getelementptr inbounds nuw %struct.Float4X4, ptr %0, i32 0, i32 0
  %22 = getelementptr inbounds nuw %struct.anon, ptr %21, i32 0, i32 5
  store float %20, ptr %22, align 4
  %23 = getelementptr inbounds nuw %struct.Float4X4, ptr %0, i32 0, i32 0
  %24 = getelementptr inbounds nuw %struct.anon, ptr %23, i32 0, i32 10
  store float 1.000000e+00, ptr %24, align 4
  %25 = getelementptr inbounds nuw %struct.Float4X4, ptr %0, i32 0, i32 0
  %26 = getelementptr inbounds nuw %struct.anon, ptr %25, i32 0, i32 15
  store float 1.000000e+00, ptr %26, align 4
  call void @llvm.lifetime.end.p0(i64 4, ptr %5) #5
  call void @llvm.lifetime.end.p0(i64 4, ptr %4) #5
  ret void
}